target datalayout = "e-m:e-p270:32:32-p271:32:32-p272:64:64-i64:64-i128:128-f80:128-n8:16:32:64-S128"
target triple = "x86_64-pc-linux-gnu"

; Function Attrs: mustprogress nounwind uwtable
define noundef i32 @_ZN6casadi8Variable15default_initialENS_9CausalityENS_11VariabilityE(i32 noundef %0, i32 noundef %1) #5 align 2 {
  %3 = alloca i32, align 4
  %4 = alloca i32, align 4
  %5 = alloca i32, align 4
  store i32 %0, ptr %4, align 4, !tbaa !36
  store i32 %1, ptr %5, align 4, !tbaa !38
  %6 = load i32, ptr %5, align 4, !tbaa !38
  switch i32 %6, label %36 [
    i32 0, label %7
    i32 1, label %15
    i32 2, label %15
    i32 3, label %28
    i32 4, label %28
  ]

7:                                                ; preds = %2
  %8 = load i32, ptr %4, align 4, !tbaa !36
  %9 = icmp eq i32 %8, 3
  br i1 %9, label %13, label %10

10:                                               ; preds = %7
  %11 = load i32, ptr %4, align 4, !tbaa !36
  %12 = icmp eq i32 %11, 4
  br i1 %12, label %13, label %14

13:                                               ; preds = %10, %7
  store i32 0, ptr %3, align 4
  br label %38

14:                                               ; preds = %10
  br label %37

15:                                               ; preds = %2, %2
  %16 = load i32, ptr %4, align 4, !tbaa !36
  %17 = icmp eq i32 %16, 0
  br i1 %17, label %18, label %19

18:                                               ; preds = %15
  store i32 0, ptr %3, align 4
  br label %38

19:                                               ; preds = %15
  %20 = load i32, ptr %4, align 4, !tbaa !36
  %21 = icmp eq i32 %20, 1
  br i1 %21, label %25, label %22

22:                                               ; preds = %19
  %23 = load i32, ptr %4, align 4, !tbaa !36
  %24 = icmp eq i32 %23, 4
  br i1 %24, label %25, label %26

25:                                               ; preds = %22, %19
  store i32 2, ptr %3, align 4
  br label %38

26:                                               ; preds = %22
  br label %27

27:                                               ; preds = %26
  br label %37

28:                                               ; preds = %2, %2
  %29 = load i32, ptr %4, align 4, !tbaa !36
  %30 = icmp eq i32 %29, 3
  br i1 %30, label %34, label %31

31:                                               ; preds = %28
  %32 = load i32, ptr %4, align 4, !tbaa !36
  %33 = icmp eq i32 %32, 4
  br i1 %33, label %34, label %35

34:                                               ; preds = %31, %28
  store i32 2, ptr %3, align 4
  br label %38

35:                                               ; preds = %31
  br label %37

36:                                               ; preds = %2
  br label %37

37:                                               ; preds = %36, %35, %27, %14
  store i32 3, ptr %3, align 4
  br label %38

38:                                               ; preds = %37, %34, %25, %18, %13
  %39 = load i32, ptr %3, align 4
  ret i32 %39
}