; Function Attrs: mustprogress nofree norecurse nosync nounwind willreturn memory(none) uwtable
define noundef range(i32 0, 4) i32 @_ZN6casadi8Variable15default_initialENS_9CausalityENS_11VariabilityE(i32 noundef %0, i32 noundef %1) local_unnamed_addr #6 align 2 {
  switch i32 %1, label %9 [
    i32 0, label %3
    i32 1, label %5
    i32 2, label %5
    i32 3, label %7
    i32 4, label %7
  ]

3:                                                ; preds = %2
  %4 = add i32 %0, -3
  %or.cond = icmp ult i32 %4, 2
  br i1 %or.cond, label %11, label %9

5:                                                ; preds = %2, %2
  %6 = icmp ult i32 %0, 5
  br i1 %6, label %switch.lookup, label %9

7:                                                ; preds = %2, %2
  %8 = add i32 %0, -3
  %or.cond5 = icmp ult i32 %8, 2
  br i1 %or.cond5, label %11, label %9

9:                                                ; preds = %5, %2, %7, %3
  br label %11

switch.lookup:                                    ; preds = %5
  %10 = zext nneg i32 %0 to i64
  %switch.gep = getelementptr inbounds nuw [5 x i32], ptr @switch.table._ZN6casadi18DaeBuilderInternal22import_model_variablesERKNS_7XmlNodeE, i64 0, i64 %10
  %switch.load = load i32, ptr %switch.gep, align 4
  br label %11

11:                                               ; preds = %switch.lookup, %7, %3, %9
  %.0 = phi i32 [ 3, %9 ], [ 0, %3 ], [ 2, %7 ], [ %switch.load, %switch.lookup ]
  ret i32 %.0
}